target datalayout = "e-m:e-p270:32:32-p271:32:32-p272:64:64-i64:64-i128:128-f80:128-n8:16:32:64-S128"
target triple = "x86_64-pc-linux-gnu"

%struct.blf_data = type { i64, i64, i64, ptr, ptr, ptr, i32 }
%struct.blf_params = type { ptr, ptr, ptr, i8, i8, ptr }
%struct.blf_channel_to_iface_entry = type { i32, i16, i16, i32 }

; Function Attrs: nounwind null_pointer_is_valid sspstrong uwtable
define internal i64 @blf_calc_key_value(i32 noundef %0, i16 noundef zeroext %1, i16 noundef zeroext %2) #0 {
  %4 = alloca i32, align 4
  %5 = alloca i16, align 2
  %6 = alloca i16, align 2
  store i32 %0, ptr %4, align 4
  store i16 %1, ptr %5, align 2
  store i16 %2, ptr %6, align 2
  %7 = load i32, ptr %4, align 4
  %8 = sext i32 %7 to i64
  %9 = shl i64 %8, 32
  %10 = load i16, ptr %6, align 2
  %11 = zext i16 %10 to i64
  %12 = shl i64 %11, 16
  %13 = or i64 %9, %12
  %14 = load i16, ptr %5, align 2
  %15 = zext i16 %14 to i64
  %16 = or i64 %13, %15
  ret i64 %16
}

; Function Attrs: null_pointer_is_valid sspstrong uwtable
define internal i32 @blf_lookup_interface(ptr noundef %0, i32 noundef %1, i16 noundef zeroext %2, i16 noundef zeroext %3, ptr noundef %4) #2 {
  %6 = alloca i32, align 4
  %7 = alloca ptr, align 8
  %8 = alloca i32, align 4
  %9 = alloca i16, align 2
  %10 = alloca i16, align 2
  %11 = alloca ptr, align 8
  %12 = alloca i64, align 8
  %13 = alloca ptr, align 8
  %14 = alloca ptr, align 8
  %15 = alloca i32, align 4
  %16 = alloca i32, align 4
  store ptr %0, ptr %7, align 8
  store i32 %1, ptr %8, align 4
  store i16 %2, ptr %9, align 2
  store i16 %3, ptr %10, align 2
  store ptr %4, ptr %11, align 8
  call void @llvm.lifetime.start.p0(i64 8, ptr %12) #13
  %17 = load i32, ptr %8, align 4
  %18 = load i16, ptr %9, align 2
  %19 = load i16, ptr %10, align 2
  %20 = call i64 @blf_calc_key_value(i32 noundef %17, i16 noundef zeroext %18, i16 noundef zeroext %19)
  store i64 %20, ptr %12, align 8
  call void @llvm.lifetime.start.p0(i64 8, ptr %13) #13
  call void @llvm.lifetime.start.p0(i64 8, ptr %14) #13
  call void @llvm.lifetime.start.p0(i64 4, ptr %15) #13
  %21 = load ptr, ptr %7, align 8
  %22 = getelementptr inbounds nuw %struct.blf_params, ptr %21, i32 0, i32 5
  %23 = load ptr, ptr %22, align 8
  %24 = getelementptr inbounds nuw %struct.blf_data, ptr %23, i32 0, i32 4
  %25 = load ptr, ptr %24, align 8
  %26 = icmp eq ptr %25, null
  br i1 %26, label %27, label %28

27:                                               ; preds = %5
  store i32 0, ptr %6, align 4
  store i32 1, ptr %16, align 4
  br label %73

28:                                               ; preds = %5
  %29 = load ptr, ptr %7, align 8
  %30 = getelementptr inbounds nuw %struct.blf_params, ptr %29, i32 0, i32 5
  %31 = load ptr, ptr %30, align 8
  %32 = getelementptr inbounds nuw %struct.blf_data, ptr %31, i32 0, i32 4
  %33 = load ptr, ptr %32, align 8
  %34 = call ptr @g_hash_table_lookup(ptr noundef %33, ptr noundef %12)
  store ptr %34, ptr %13, align 8
  %35 = load ptr, ptr %13, align 8
  %36 = icmp ne ptr %35, null
  br i1 %36, label %37, label %41

37:                                               ; preds = %28
  %38 = load ptr, ptr %13, align 8
  %39 = getelementptr inbounds nuw %struct.blf_channel_to_iface_entry, ptr %38, i32 0, i32 3
  %40 = load i32, ptr %39, align 4
  store i32 %40, ptr %6, align 4
  store i32 1, ptr %16, align 4
  br label %73

41:                                               ; preds = %28
  %42 = load ptr, ptr %7, align 8
  %43 = getelementptr inbounds nuw %struct.blf_params, ptr %42, i32 0, i32 5
  %44 = load ptr, ptr %43, align 8
  %45 = getelementptr inbounds nuw %struct.blf_data, ptr %44, i32 0, i32 5
  %46 = load ptr, ptr %45, align 8
  %47 = call ptr @g_hash_table_lookup(ptr noundef %46, ptr noundef %12)
  store ptr %47, ptr %14, align 8
  %48 = load ptr, ptr %14, align 8
  %49 = icmp ne ptr %48, null
  br i1 %49, label %50, label %65

50:                                               ; preds = %41
  %51 = load ptr, ptr %7, align 8
  %52 = load i32, ptr %8, align 4
  %53 = load i16, ptr %9, align 2
  %54 = zext i16 %53 to i32
  %55 = load i16, ptr %10, align 2
  %56 = load ptr, ptr %14, align 8
  %57 = call i32 @blf_add_interface(ptr noundef %51, i32 noundef %52, i32 noundef %54, i16 noundef zeroext %55, ptr noundef %56)
  store i32 %57, ptr %15, align 4
  %58 = load ptr, ptr %7, align 8
  %59 = getelementptr inbounds nuw %struct.blf_params, ptr %58, i32 0, i32 5
  %60 = load ptr, ptr %59, align 8
  %61 = getelementptr inbounds nuw %struct.blf_data, ptr %60, i32 0, i32 5
  %62 = load ptr, ptr %61, align 8
  %63 = call i32 @g_hash_table_remove(ptr noundef %62, ptr noundef %12)
  %64 = load i32, ptr %15, align 4
  store i32 %64, ptr %6, align 4
  store i32 1, ptr %16, align 4
  br label %73

65:                                               ; preds = %41
  %66 = load ptr, ptr %7, align 8
  %67 = load i32, ptr %8, align 4
  %68 = load i16, ptr %9, align 2
  %69 = zext i16 %68 to i32
  %70 = load i16, ptr %10, align 2
  %71 = load ptr, ptr %11, align 8
  %72 = call i32 @blf_add_interface(ptr noundef %66, i32 noundef %67, i32 noundef %69, i16 noundef zeroext %70, ptr noundef %71)
  store i32 %72, ptr %6, align 4
  store i32 1, ptr %16, align 4
  br label %73

73:                                               ; preds = %65, %50, %37, %27
  call void @llvm.lifetime.end.p0(i64 4, ptr %15) #13
  call void @llvm.lifetime.end.p0(i64 8, ptr %14) #13
  call void @llvm.lifetime.end.p0(i64 8, ptr %13) #13
  call void @llvm.lifetime.end.p0(i64 8, ptr %12) #13
  %74 = load i32, ptr %6, align 4
  ret i32 %74
}