; Function Attrs: null_pointer_is_valid sspstrong uwtable
define internal fastcc i32 @blf_lookup_interface(ptr noundef readonly captures(none) %0, i32 noundef range(i32 1, 156) %1, i16 noundef zeroext %2, i16 noundef zeroext %3, ptr noundef %4) unnamed_addr #2 {
  %6 = alloca i64, align 8
  call void @llvm.lifetime.start.p0(i64 8, ptr nonnull %6) #14
  %7 = zext nneg i32 %1 to i64
  %8 = shl nuw nsw i64 %7, 32
  %9 = zext i16 %3 to i64
  %10 = shl nuw nsw i64 %9, 16
  %11 = or disjoint i64 %10, %8
  %12 = zext i16 %2 to i64
  %13 = or disjoint i64 %11, %12
  store i64 %13, ptr %6, align 8
  %14 = getelementptr inbounds nuw i8, ptr %0, i64 32
  %15 = load ptr, ptr %14, align 8
  %16 = getelementptr inbounds nuw i8, ptr %15, i64 32
  %17 = load ptr, ptr %16, align 8
  %18 = icmp eq ptr %17, null
  br i1 %18, label %38, label %19

19:                                               ; preds = %5
  %20 = call ptr @g_hash_table_lookup(ptr noundef nonnull %17, ptr noundef nonnull %6)
  %.not = icmp eq ptr %20, null
  br i1 %.not, label %24, label %21

21:                                               ; preds = %19
  %22 = getelementptr inbounds nuw i8, ptr %20, i64 8
  %23 = load i32, ptr %22, align 4
  br label %38

24:                                               ; preds = %19
  %25 = load ptr, ptr %14, align 8
  %26 = getelementptr inbounds nuw i8, ptr %25, i64 40
  %27 = load ptr, ptr %26, align 8
  %28 = call ptr @g_hash_table_lookup(ptr noundef %27, ptr noundef nonnull %6)
  %.not24 = icmp eq ptr %28, null
  %29 = zext i16 %2 to i32
  br i1 %.not24, label %36, label %30

30:                                               ; preds = %24
  %31 = call fastcc i32 @blf_add_interface(ptr noundef %0, i32 noundef %1, i32 noundef %29, i16 noundef zeroext %3, ptr noundef nonnull %28)
  %32 = load ptr, ptr %14, align 8
  %33 = getelementptr inbounds nuw i8, ptr %32, i64 40
  %34 = load ptr, ptr %33, align 8
  %35 = call i32 @g_hash_table_remove(ptr noundef %34, ptr noundef nonnull %6)
  br label %38

36:                                               ; preds = %24
  %37 = call fastcc i32 @blf_add_interface(ptr noundef %0, i32 noundef %1, i32 noundef %29, i16 noundef zeroext %3, ptr noundef %4)
  br label %38

38:                                               ; preds = %5, %36, %30, %21
  %.0 = phi i32 [ %23, %21 ], [ %31, %30 ], [ %37, %36 ], [ 0, %5 ]
  call void @llvm.lifetime.end.p0(i64 8, ptr nonnull %6) #14
  ret i32 %.0
}